(dp1
S'session'
p2
(dp3
S'DIALOG_CONVERSATION_ID'
p4
I1566975
sS'POSTS'
p5
(lp6
(dp7
S'text'
p8
VHey, I'm Watson. I can pick the perfect BMW for you. Ready?
p9
sS'style'
p10
S'Watson'
p11
sS'datetime'
p12
S'2016-04-10 17:14'
p13
sS'name'
p14
g11
sS'icon'
p15
S''
sa(dp16
S'text'
p17
Vyes
p18
sS'style'
p19
S'Partner'
p20
sS'icon'
p21
S''
sS'name'
p22
g20
sS'datetime'
p23
S'2016-04-10 17:14'
p24
sa(dp25
g17
VIn order for me to pick out your perfect match, I need to take a look at your social bits and bobs.
p26
sg19
S'Watson'
p27
sg21
S''
sg22
g27
sg23
S'2016-04-10 17:14'
p28
sa(dp29
S'text'
p30
VUh...rather not
p31
sS'style'
p32
S'Partner'
p33
sS'datetime'
p34
S'2016-04-10 17:14'
p35
sS'name'
p36
g33
sS'icon'
p37
S''
sa(dp38
g30
VAs you wish. I'll just ask you a few questions then to get to know you a little better. Ready to begin?
p39
sg32
S'Watson'
p40
sg34
S'2016-04-10 17:15'
p41
sg36
g40
sg37
S''
sa(dp42
S'text'
p43
Vsure
p44
sS'style'
p45
S'Partner'
p46
sS'icon'
p47
S''
sS'name'
p48
g46
sS'datetime'
p49
S'2016-04-10 17:15'
p50
sa(dp51
g43
VFirst question. In their unguarded moments, how would your friends describe you?
p52
sg45
S'Watson'
p53
sg47
S''
sg48
g53
sg49
S'2016-04-10 17:15'
p54
sa(dp55
S'text'
p56
VI'm fearless. Throw me into a new situation and I thrive.
p57
sS'style'
p58
S'Partner'
p59
sS'datetime'
p60
S'2016-04-10 17:15'
p61
sS'name'
p62
g59
sS'icon'
p63
S''
sa(dp64
g56
VI'll bet most people find that confidence of yours quite attractive. Next question. What's your idea of fun?
p65
sg58
S'Watson'
p66
sg60
S'2016-04-10 17:15'
p67
sg62
g66
sg63
S''
sa(dp68
S'text'
p69
VI workout a lot. Lift weights, run, that kind of thing.
p70
sS'style'
p71
S'Partner'
p72
sS'icon'
p73
S''
sS'name'
p74
g72
sS'datetime'
p75
S'2016-04-10 17:15'
p76
sa(dp77
g69
VAn active lifestyle like that definitely keeps you young. Last question, Tell me a little bit about the kind of driving you do and your driving style.
p78
sg71
S'Watson'
p79
sg73
S''
sg74
g79
sg75
S'2016-04-10 17:15'
p80
sa(dp81
S'text'
p82
VI just want a car that's fun to drive.
p83
sS'style'
p84
S'Partner'
p85
sS'datetime'
p86
S'2016-04-10 17:15'
p87
sS'name'
p88
g85
sS'icon'
p89
S''
sa(dp90
g82
VYou sound like a person who expects more out of life. To see the BMW model just right for you, walk me through some of your priorities and click the button!
p91
sg84
S'Watson'
p92
sg86
S'2016-04-10 17:15'
p93
sg88
g92
sg89
S''
sasS'DIALOG_CLIENT_ID'
p94
I1565745
sS'STT_TOKEN'
p95
VPdnz9n5NQ%2FcUfmuOGQc9XG6QdF91m4VJglGvnZS9GykLapBY%2BlXM1eSy7nlzMHtwuiDkyl5E3N2HvY84zAaIYR0%2BJI26B6marJ%2FlC%2BJ%2FT6pGkLzth%2FPXPinmEOJu%2BNk0GhFz%2BERf2np2SwCYAogHj1w4wkQw48iDAO5zbq9Dp7XIO7V015qfwZaOWuX6jyNEJfOqzBVpmcPL6GB%2FsJghdLInk%2B7dnJp8OuqCk58sfxfaflhyfUNq253gvooJNujiIQozrvCKsS7ExQK1SSStmmiEPK5IJpxLSkpe4KK5P68M8EWK7xMX9sJJm13lsCIgDbozUSLvxdxKeYpTHO1utUL%2FELPNAF4TU2tJTj2daGGpZFViYdyK%2BDpw4EdEiZzf0KHhc8prqLayHTSExX4wMqbO0PFVIn%2Bx6OAdi1ICMc4kvVP85qO2liBXkshtekdO0C9I8ZDmZMVh51Ve9fq%2FWZlOEOvjZtbet%2Bfhhmwysiv5nZWXXcm0wMd2WfPISNKUiNZ63uGe0ghxhyu5Do5ujqZMqxmsY0L4G1MA4uCXrKRMgsDsPkYBDWxhIxXqWDnbpwC7xO%2B55Pa9zGO6WjiHNWnwkA9%2FZknlOV%2BmAaPcQmR6N4RYO9ayLym9vLkS8XsHeUGBDb8MZ6zRJs%2FoXfSb3XMUILO3p2%2B2ULsbJoHJ08vcVjlGNrwrA6i62DB10Lmjv1qiVSR%2BXTG9kszOqmmy9HtYL7i3MWCYFdHATOILXcD6t0QM5w%2Fmy2kpfwEDIe2a78P26OLNkbw%2B524ZFahk%2BnDksO%2FL4OaU%2BDIfqK8Oc%2F07zyz78At%2BTix31n2tEPlQTpRe22eafmE2zTDL7ofoBhVbfICnRIz%2F
p96
sS'TTS_TOKEN'
p97
VN5zqUWQ2IfXlg%2FYFNoSNY7OPawN2gdQpIditDmQgs408vRr6UEWXtki%2Bh7zraLnGIIzH1U0pIBrU4khsZroMEeYWWfXchgFLhiJEieDhsyztnfkQ%2BftTKmldLaMtyE7YhZSKeBXTSZvPlaeqGqipmd0Y1%2Bcr%2Ftcv9jP48tYM5%2FD9cRx0OmcyGkS4thkLE8ohe89FrPee%2F%2FnXIJWNFQsADh6uDa0DabqIRfIFkoP2vNKSlc7ZIlZQ5kdl5Q48K7tRQtKjfjaFZi%2FZtHrekoQF3V%2FQdEgR0ajFjJO7rRSrJXpJCv%2BGYnMYUUwZLcfUyatlFUBitDbrQZ3kWIwwees3sqVW8tYdKULL2dOBmNJC%2BtwZr%2BDZ28Sv4EWf5oE%2BpFwvHBcnbSkwxV80WQQDz%2BgL3%2FFmhR6W%2BtlGzQS9t%2FMfqRGkJlASfjEeHviXPqNwzOdwgB4HhAE%2BtBeecRRwSb4UucQP0jDmjdK4s2nMeMNkcpNMW%2FegSimA53lcdIX8wIgBmAmOxndbH3rftD%2FokdkmUgjCS5%2FsHNb8XR7aUkSpEySAlrRa66nYjYs3EF5s8NXh4Gpm7QOUnqPO5AvBsm9ZlDFzKu0Hm3TbiSFlxZM%2BQpcS4%2BLd4KpYY5Co1iginvNuc8qoCKEjtaC1lElgX9lljhHvMZtvEOQpfxwu5K8MktqDcKxPgzBaKdaDg7c%2B7azvtGRfEhBknjMXl1IliqNdsYVf4SNxqemLjQEJOQ5w22elUOJlGHzB6a%2FdM5qeEgHxWdThxEF1mVhCywSRxtPRZ90yFlPLM4MA3Xdbom0LjpX31zaV1rI5dgAGmqN5MpBzKi%2F8hMrY4r4LqzLjFF8B%2BcteDf5TSVcb
p98
sS'CUSTOMER_PROFILE'
p99
V2 Series
p100
sS'_accessed_time'
p101
F1460333740.9300001
sS'_creation_time'
p102
F1460333683.618
ss.