(dp1
S'session'
p2
(dp3
S'_accessed_time'
p4
F1460665689.2019999
sS'STT_TOKEN'
p5
Vbz6b8IV8dq2q3lsoPeXTiVO0LMdQuf5FXBxjvfBma%2FO1ZTR8d98xspKrZlTQGGlvbAyMAHxsxh2PbC2cojqZjcsxYy73EtZP78od31EWwnWVK7HewSpXV2Lo0ovwII1tKBuwdtM%2BYZdjPQR61e77qCGOpfzJeBkwITpOnGKGFu5tEZmboAiZYFZXbs48WBgJTg73KxUf5SPBe1uKVoXfWiWbwoz%2FirT%2Bp6WtREQ3S%2BZYu%2Bp5GNcZob%2FrhOlL93L4%2B7mMlhlDu7%2Bp9Cl81XKvRxzX6jdCCcEmzG2Y0rOyJe9QGp8S3AJUrn5oYSD0wCHvkZKtm0%2FWfQ%2BZtVC6kfaXWol7brorRY0Mj9NjharVbW66XMTDy8MpEzXU%2FPTxAIBJ5nsvLc31vHnJerOhXYqKd7ihmbiB%2BHryURysSQ1I%2F5pamxnfIUFgE%2BvsKYDhCE3cu6RwWCOa032wJsQlC56wzpa%2F%2FQfoC87lfI9lL9lcAjkWVakVW%2FBPoUG9ffmUwKpnjoB0QGmz%2BjKZqbGxZeGsZgGRoJAoB3%2BuDWEUTTH7rzM6oITLE4Qqb1J5%2FboRbUDyKFXx%2FAB%2F3ECo2D84d8lyxznPhac2k%2FJ4qyd94qO4hj8qHgCoYi%2FLDy81iJ%2Btqo1G04dndNjzeBqKg2OI5TUkfb0rz1QtZiauNFd2y0QsOufWASpBCY5eiSSvXtxA3m7CuUKm7%2FS%2FjKewZJ0iJjqRZlA3Ag0QdzloCH7KdPYlrPs7V42STmOo4pHXypuVEKTcVLkkVDC7OQTNi5ivV3aL9%2Bjn5t62T4e7kq3cILZPCc1u12EJUf6%2FmnKBY1UGOE8nQbnk4EGRkXEZpr9RjFGbHqJUwLmBVF1w
p6
sS'POSTS'
p7
(lp8
(dp9
S'text'
p10
S''
sS'style'
p11
S'Watson'
p12
sS'datetime'
p13
S'2016-04-14 13:28'
p14
sS'name'
p15
g12
sS'icon'
p16
S''
sasS'_creation_time'
p17
F1460665689.2019999
sS'TTS_TOKEN'
p18
V2CHl5a2vELPqMvlRMYRIFJkhzsKIls0zo%2BBwhe4EC9V9yjoR1aYyl5x%2FJYEQPAmGpo4SnFNPSKSFJ05GCcVXHQLy8K%2FzxnE%2FLCpeD2yzJlfz6IqRrVGjTh6RGGCt5jIdlCQq22Fv6RY7bmzFhgeonuZTLkaAcliXAvXmKhzHaok16v0QWDzDwDRiiPkINue3eku6JjE7aiWgwwxiwI0QhKq2%2F%2BcrPPQ1yvomtXdfzjfw%2BB0RK2%2F1WmTzc8OZ%2BIx8tflbFiA0mCl74RzPmXklKOW4oh%2BaYEEwSPEi3nCtjep0nu209TAjumrpRRkOiVS5kqa2rdlKyua5YYlViPYAMVKrBTDSh17zolOgh5bbsyzlMwzBCozasL%2Bht3OjdzG25N6piqXVzXrRCucZSy2jl4rrKx3MRH0Hkv312XsQITARr9Gd%2B1YlqwjwilHwsyXj4r%2BSlHKSUhXeP056C31p6TxQCEAmEIdnwV1uT39qhV4bo1gPcSYEa8HTC4T7lPvzeubouqJ%2BXc1k16sUEqy3xzXOn6rs9XhDFIJoOnN7iROPtzLs%2BaJ%2FfBmZC75Vp20ADT2DzIKUsS0puEv11Sh3maiBuC9L5n0ftCpl1BEh%2F9yvUqLchKeEHI7xCU2pah1MUV1kTLI6461wOaiiwCKrUgIYh9bGfMYdcQU2JMlqYFwByGfBekj4AQ8%2FUzjjykraCT70k4pXfy7wI7liZkMUvAaDtKvw9Fy%2FvFEgr3vPRpd%2BjAgPbdhxnHAK4DobTTgBTyX9sxTtg5%2Bi3McwatwA7LraYGVWhLObB%2FYp623gZ0RNNFFA5ZS7b7pWuVlJno0xg94FH%2FLIk3cYcMcl%2FZyGGmdz%2FwUfBz9O
p19
ss.