(dp1
S'session'
p2
(dp3
S'_accessed_time'
p4
F1460954459.549
sS'POSTS'
p5
(lp6
(dp7
S'text'
p8
VHey, I'm Watson. I can pick the perfect BMW for you. Ready?
p9
sS'style'
p10
S'Watson'
p11
sS'datetime'
p12
S'2016-04-17 21:41'
p13
sS'name'
p14
g11
sS'icon'
p15
S''
sasS'DIALOG_CLIENT_ID'
p16
I1699034
sS'STT_TOKEN'
p17
VPaXTNr7OrJZoHw54iV8PDxAcWls65hqYZun2jqHQQ6pXZhgB7RrNXnZDF0CN3NrOxizUkotZONhCwsvLGx0LS5OFpcaJW6SfsqBdZR53Vs1X8l2IPnxbN7UYnONV4ZJ2BQFWT5hMYRI80rf1PSienjKNXswN0akSSUNkmqIvekcjgeCmfyxbHaqHZMbcY6ViqpS1mb0Mqy2WWrGBYR2h81p9slpR%2F4sY6DDV6AFiSwTPIH%2FetBzQljy92HPplCPWLS%2BHMXbFgTXOIXdR2QuUQTaqVUYsLRm2AY9OJKDNscqdE3%2FhqrAemT6nVm5D6wjKSOGGe9e8pxobgARXZgl9m9T0fSKgRoAjAqjpsT0bxZUORli0Ibj%2F7RDiYU0hZxpM5Rp4tjmSZGXH1IYIaETI5u71NmvCaSfFn1GMsCNYNY5KswvAt4B9QC6NkrD6BLhJMKo3bFUS5fvNBZGWqcEoJ%2FnEcfa%2Br7qP5NOay2CXtkuc5lKuMtJ4vP%2F%2BCdJJiOSZNHx1%2BAWAE2dhdWt7Iw1UKifeQyCTEtd4KYBUT4o1YUJTwT2VsyETKgeVwfdRfAnSknMIVSYq%2B1IaoV%2BwvTLpRNCFKedxGWTPyLx6Pn18W%2F2xrXwWxSXmOsXCkgJD7jo39f6rshaqVrqXdxQYKk84yhxvwDK7XhiFg1iAYc9ns6sLtQF4EoAtRyl%2FC6%2FcEa1Yz94rSWG%2ByWoWMomuUTDbe9npJPEivh5bwdXOVbYNStQsjntN3Zu8A8GXejJ5SWHzNN%2FXKvI8DCXTijbUWxqnM2li04pXDkZHvMjuj1f6oj83Vs9Rb35lGx2bJKYyeUC7hm2rN%2BqEIeSmBOEDfE60hKU0OxbdPyK3
p18
sS'_creation_time'
p19
F1460954459.549
sS'TTS_TOKEN'
p20
VqTj9Ldkl2zeqO3iUbQfXsmPBSkdP%2BqvPj064FLHsmLG52RaH%2FHFfCbPgSlJlGegUPx%2FyQBNZvlTDZZIiMBONHtJqNwmmAKp1RoRWqX2rTGRyjhzo0YQlryXSTF6DKEQJs3RkHJV2GkEy3M770rIk7gyFC5RTUcpslDXKtdZWM6ivUb85M3%2BYtaM%2Fpv98c8LnR3qbMAf6Ra3FyHf4PuM3zSuj%2FPajRQj8jz%2FEdWrBaYXgkQm0l%2BYKaHYZWNCA89u19J%2FwowzAE%2Fk6pTpU%2FrzWMKH4CvktPw%2B6bUdz4KNI60t1t3b6R1qqNXGnyYP73Gbpc2jkOg8kM9pGFCI75c4rdk1bCIWMBlXg%2F%2BG86kAkPj44XM1llSUdPQ0QLB525Hliu620ptYCfoNhFNVbX%2BPYR1B49wo5xQ5cuXsA%2Fm%2F8boWh1T%2BJJ%2FvDTVg97tb19maAxooC2FeZ2cOqJbqOVKUJdP2CcrcdGvRHLfpowS1T4M9UBRzqUXzOkGW%2B3Qq1ikRgshJto2wUr0xnrhbWerAl502CH2pUEDXfv247n%2BRgyBcYUSvpBGgUjZlV9prv%2F6IN1M1TP5zNQKwAsMuCbN3RcXVZXGexo8BjFeUg2KfxUK%2FE%2BuYGfaJH3LKjkeVOYS5Z5AlgvMTOhn7r9ZWlIVNCkjv07mHxq6MdjhP8FqColYc4kFvER6r15urrpEot5piIGkPhLm8QRtcfVhyozBIjFwAvVRcPmpr1EUAxTMv6N1GbSlakI1ApMAC9RQqtDHeyBbo8aGxRf6pGx2257LeVnqaxBITLq0lL0QArahUFqII9FiXd0xGZP5JjKbZTIv9FIfCTEIaA%2FPWPZdZKp21oprt7Fq6eqADP
p21
sS'DIALOG_CONVERSATION_ID'
p22
I1696687
ss.