(dp1
S'session'
p2
(dp3
S'_accessed_time'
p4
F1460396592.7149999
sS'POSTS'
p5
(lp6
(dp7
S'text'
p8
VHey, I'm Watson. I can pick the perfect BMW for you. Ready?
p9
sS'style'
p10
S'Watson'
p11
sS'datetime'
p12
S'2016-04-11 10:43'
p13
sS'name'
p14
g11
sS'icon'
p15
S''
sasS'DIALOG_CLIENT_ID'
p16
I1582385
sS'STT_TOKEN'
p17
VBxTCtVHi7lJPX2EzpHDbH69wUm6NcsZMFb%2BMq9zNVh2U%2BidX5gixmMnGNTKK25A8d0mN7hdg1ZBsSsD5NM1DEk1M6sKCx3qocg%2Buob%2B51%2FPYNkUgRNaKU9BHyhh13Fp%2F%2BptmipaPtY6DR4Opd3%2B95MhOCB6vS8bZxQ%2BBj8Q03HT%2F9FTY1e35Yj2%2BTK6R%2FT6NXxBTE4xUR8mc%2Btb5IbrcKSOge%2FwA6GH6GmcuLOFplItvm%2B8DNGLHBUIDbGs1csHjZIYxDHaoj2XAZ5Vy0tk6AeL99Me1tauv2FESXpBX1jKMGWSx8WI9Fj5v40hf24DszOLtmVCmYlCRnHwgH1gY0SPBHxhB0SgLHObkFqMdyOXRnlqaFuJJTW75eEU%2FJFosCsU8nPa6kAYc0xpVnxNriTYJHpHxp6QcZrXUNLdg5a9abs6u%2F%2FPg4dZlh6AjUJMmzmgeHpvdPoPjKcLyUDnHOB2W5gUv4HQePUaejF%2BjT%2BSkKJEQ5dh5HUWWiUHHEUFU6azwFmzL0j%2BSc3Lm75v0c08FeWcQJMUrtVnD3lcmAg0001DohpriMi65Veg7Av6Ta6KkV91fajve5%2FZcX2ROQIO1bRPJRDfwScYCx3Ws%2BQSczxBx72m8L6fWYgZfPFJDC%2Fshk46z9kUL8xYc%2FDoH%2BRmn4PchBb%2BZCCKDLSlneM9ZWajFkaS%2FIscluGAXeRlesLdsKoIedp9TOfTMYnXxbGKoJb%2BHRhOa9YGz8i6P24z9SAZT%2BlusQSkPEqLymiKveZvhWzfh7DbkzNoXdVRBQnB4YielBGtxM9GyhPXpT%2Ffj13J2BR9InT4F76YKhd2FEewdk0DgA0F%2FerctixqVrpzzFD9xUqLv
p18
sS'_creation_time'
p19
F1460330670.819
sS'CUSTOMER_PROFILE'
p20
V2 Series
p21
sS'TTS_TOKEN'
p22
VylxQTOBx9tAXdn03I3ktH%2FBqS6ujP3WUMYGrGwSmRysEdWz1YE7IP3lC0Z2ggH%2BIkpNcVhkL3QsdCRpNryeGNsoO2p8veEKKE%2BvLm6ru9HN66tPUWRzTd%2FVL%2Fr0gvvLc%2BC06MF4BVbRg02MkMLlDRarMo9IatlpqQrF%2Fk%2B%2FMy3xJc2gcFnECJrIETsIMerCqjZpnaB6Fd7p6gp4WesjuUrf5VbRvuiIEJnLw4aoZSCFR0XC4KZA%2BFc1OJfg%2FqC7HeUjiGTvP5h9JBeSqJdl84Y6iE99XBHGz609461u1G9nWWaHh3uPPTUbJNkB848rD3k6fXI%2Bi0uNu4nDfxFx1rGpzmE8BkbnSQhxEi0nB%2FM%2F61y%2B0upDfKHe%2BbhH%2F6O1VY1TOIsNx%2FsoShiq%2Fy0CqExTaBAd70XvIP2a2LUQp6iOOAFMP0vdHaSZI9Jjg0CavLj0rQ1xW%2BnflyB5UPCrpH4tJ0%2BhXXCyodvNlv6YGELh9ju1vhXAmirVlpReDERnKAmH%2BdqP2beIoZF%2FKLuGwmIu3VHICUyX%2Fs5NPDEldIn%2B971YKMKYqSonFs1N6zWgCDv2LaAxRNknPuHTUlRp080adyQHEDsPmGL5ELwZS1m3XAq4fmtrR1%2FGMy6%2Bv69bOsasmj78bnvCH24r2QYDGtBbgvx35YveZodY5Bn43KrDyXSiSeYdbBy%2B005yW8n3G5vvQ7H8DQdQ5FmeAtNOfQ22CjB1DNmqfnJmE9oH6bcSLnzHZmSj9oMv56dLltdUdQDPOIHjjtbFH5nU4XHGlXULilmOYu6CxZ36sw0PwYImZR3521BXJHqqdpX%2B%2FkspRoLLu%2FG4SEu9tjnitD7I7Et67333vpcdX
p23
sS'DIALOG_CONVERSATION_ID'
p24
I1581630
ss.