(dp1
S'session'
p2
(dp3
S'_accessed_time'
p4
F1457991233.302
sS'POSTS'
p5
(lp6
(dp7
S'text'
p8
VThank you for contacting the call center. I can provide information about our company and products, help you with your account, and make it easier to do business with us. How may I assist you?
p9
sS'style'
p10
S'Watson'
p11
sS'datetime'
p12
S'2016-03-14 14:33'
p13
sS'name'
p14
g11
sS'icon'
p15
S''
sasS'DIALOG_CLIENT_ID'
p16
I1094777
sS'STT_TOKEN'
p17
VWMWxfAc%2FkjMMvYPILmCIhRYG0KnNuSFrK2Bb%2FReT3P47T4D0FFO9vUucf8EWWH0ShRXkodr%2B8ZDUQ1uruVjR9FE2C%2FJlczrSgn0B4zJXf1qzuqL7PdjPSXn%2BElkOJcoTg2o3gjQQsGECFX8eRTTrcPo3WthJFkhEzVi%2FQBIpGC45fWVYSkmAOQx3b70jnf8CUom2WCTxqSXXsn3Ergnlo7VmBAkrZyvE71URuvYx%2FWdfa%2BaxyJrNVX2Av5P2eQi58NiFlc9wya5x98CzLZ26LelV0spI0g4%2BIiM6t8o5jFC0e8JtXbERNLpTmgWkjoBfGNrRNW07mg0LQsttlcO6115MrdoAX26OSdjze2ZEDBUjDRZ1h5q9qI9qyg61twnYGF0X29wn4nJY41pV%2BaI1rSYfkkGkZEdxFNjClKeKpdfNKLLhN8R6LU776h6SxiVUWtCoLr6xtchGlCLkiNgNq5gv62Lo91Vsbk%2BNRlQIMIorTXnpO7uGoHvzE1vqfyUc%2BWL6sD2uaaRxgbolbZGcFnTi54MMB1MG3QM5VPOUTuTAPBHeaBVufHa4F4xs9g%2BxMXRen8qt53b9%2BiAQdK%2FsmCvIn0bYIm8WE9z4nn3hv7HKYaeySA60Rg0XnciHMeYElWTgYHh3ssS9e5yjv756D%2B%2BUmTZM9KQqyiqaGKUbLHuPkLPS01rzKoZcC34Bx7Zd25fCaPNYRMVrzQ%2Fkp13ANxoCcVVN%2FpAGm8bgO4PU6e7BrpEZBGAt0epbbCPLVewSu%2FWYVm2RPcNQHDwRmpMdQjg%2Fh9k9FDiA%2FlETiIGG7datzX%2BV3kuAsT3JGGa5eihYn9spatvGZjTo2CUQTpSMS%2BD8FPPy3KOP
p18
sS'_creation_time'
p19
F1457991233.302
sS'TTS_TOKEN'
p20
V0cJ7vhaHu0jNb6bRNr3UaXvJcPchX8W0ndDVUt6ZvZmiZCuUk9faJICihYx5DCNiToN7dHiytpViv01%2FpBJEuvFylHF4ODeoZP5BE9jD7onf%2FuKH3LhPo5qJ9uvWnM2%2Fu9tnPRP9Opyq6pRGZ%2Fen4UdnWGsJwoO6JXhLTB9Q2mgxjdmb5AkzhVNqV%2FnCkgruDFmUh9x2y8BT8gJGsv1X7MsAVt2SbdDVZKofB0%2BGy%2BjwDgt9TI4UE%2BU5%2BjLtGrlZ4dsDr%2B8SzCCQlcY7aFwvfO9Jh6%2B%2BDqy7oHxslqd3TVx3QhLLlEYyYPwjzo2Bl6etiotur05Fd%2BjiGR87PcrlakvlYENlAPvNH4FQ8WSckoKc20%2FJ7PwIQR3cgyWMYewc3%2BAaw16k9dtnBLDqCCk7ss00flflAY50U27SdVF5lCkH5S1yIjbsNptjhUFsVi7pEWGAtPTF0iQ8pVYdaeP8Jf2ufCZ5TB8WshBVWs0uO7lMjjhQU0zW2KMUzkV67cW677m%2BNwhYDfuWAObqqeDR%2BYenLd0zYm8Q%2F8kXNTb%2BDoiX1tHMaqUXvfzn3FH0qkVoiaj8wbNrbAdQxlPFLV4C3qNS%2Bq6hFA8rmYaxt%2FndT2UH8evxRLmgKSoR0R%2B%2FWnyERf6i1PQWOLZLno0x4Cr7fNC67ARWcp0hwL1BeYXpIONbwpYt1%2FBAuL%2FNtnhJszYtmAb30NoWsxYjFo%2FuZCX5WF40MJBAVnUIU1uuL21ma1safVwSvjycr46HT7IvU321EYPgEpsfiSl0mKwn%2FENcJesSRPPa50kC6Ph6EN5ev552%2BMETw4jnmjYLCeDJWsPOtWlXK4LK5ABnD5HEApFKZo6l3YdMESGM
p21
sS'DIALOG_CONVERSATION_ID'
p22
I1080842
ss.