(dp1
S'session'
p2
(dp3
S'DIALOG_CONVERSATION_ID'
p4
I1291784
sS'POSTS'
p5
(lp6
(dp7
S'text'
p8
VHey, I'm Watson. I can pick the perfect BMW. Ready?
p9
sS'style'
p10
S'Watson'
p11
sS'icon'
p12
S''
sS'name'
p13
g11
sS'datetime'
p14
S'2016-03-27 21:35'
p15
sa(dp16
S'text'
p17
VYes
p18
sS'style'
p19
S'Partner'
p20
sS'datetime'
p21
S'2016-03-27 21:35'
p22
sS'name'
p23
g20
sS'icon'
p24
S''
sa(dp25
g17
S''
sg19
S'Watson'
p26
sg21
S'2016-03-27 21:35'
p27
sg23
g26
sg24
S''
sasS'DIALOG_CLIENT_ID'
p28
I1303713
sS'STT_TOKEN'
p29
VhgKu6vIv3zj3CBEB0d%2FEXKlkKuYHOvvPBDjrdOtUU8Q%2FnUbIgfvPkr1W3LwPavoXoBwBhJUUdd%2FvPo8kY5byZeJgJyxpvDBk4jTqFbSkjCmXvuZ%2FjzcCX%2FneyB3nAWWu0m%2BEYmCMXND0LNoKqb%2FesKy80V3uMwXCXRIuIucem3Lt4e8EOIRKaSQcSdQmuNQhbciK5IF4IoLyCmSvpEK%2FAhWc%2F8cK6xZsE4N9fMR5wGnvzstLofCW5n2YmgpwXlnseJQl9DB01Mfy0Ij5q%2F%2Bc%2FRRm3%2Fln524hslcxzkIIubs%2B7WbNY8o1D1BeO794re5MqiJOWr%2FEAVTU1JZp9v8SQ4rBoN5EtYJlOcfRILVvHRN2VW6KIE8FeSNjYKm00E%2FzEBem4nx448D5YRyQWov3KWtMcIHXsaHRDODe49iac5kX5RnAl9ORXGhmJQ6rpPbUyaqzCLWtCoDiIP99gXC54C%2FVmqhR302GizGUtyllJUPoGGBggCPrIKaS%2BfzX8qIWlq68%2FOQOE11IMCeKohECJFR7Ajw9NPS1p4sSvqCGYGxKdWF63Dy4Bhuiv7YNNidxXqiyPj%2BgITmhjMFyU7fzroUL7JNGToMybgmGILu0SEHajLgMZ8%2BSN3ZirHSKF%2FtLWnk%2BI6T8G1vodESMtkv2xIlK%2FVuOkqCTtHHvAF5%2FrzswyjlkYn2SpoVe9%2FYpl4LNeUrE4Ya32z%2B4LvXclfN1GBJxR6GBrPH63qMJj3MuSAiQrj3O8AG%2BcDkeqZ54JwXfwLvJ9sPD0GGfh2FhWrUHVCxpu4rJr8t9q1nZ26c%2FBB2I3VXUx6YwtI94hY0dlbIJvJMog56RMcPbeW04jD9Ob1EH7jsET8gb
p30
sS'TTS_TOKEN'
p31
VctgABlKzc3PHmBYh5xRGnR%2FbYhxA8NgHjzkH1hA5sWKyRSQiygOBi35%2BIPD5gt95xL7kpg7%2BcTa8B6lV%2BdiPQZLr7e%2Fxpuz7xurfZ%2BdV7eVNnsZSm9HcjV5PjSTtj2TNtp9ks4qqdwDaZFw%2F%2FR%2BxNbwi2vq5lEPCIvnKl2z4GBE57%2FH7TsS7OFcTgwr3rFhab0biuy%2F6Mzk9tLxU1wuu%2FprGuekXoeyWth4%2F7ysNxZ4V58CxlvQ3k50ldd8xEJ40e83%2BcgM7hCr7VXK4u0BWQQE%2BMi%2BCN0ef8131ZOI6Zuwo%2BN3INWfKhR9hjRr%2FfH4ExifCq9x%2Fl4NiPn%2FiN0%2BcT2yOPvL3iJ%2FsRkpCK27hnTkhuZFMmrbSMfbC%2BpjMeYowRxTNpj%2B%2BHie5SwVm3yrCrWAr4Cvl40cA0FY1oDVr5S9PJXIYlZsVOpOrHL7d3UJiHDF83tzm22pCERYjePQNFKQRgYhqQS9M4nWlb40TZl0oXpRL5rGqVn3FulU9EVxm%2Fzt2w04MDVoMZ6IlOB%2F4cS2Ur847JnA9D3uBY9Du4TGrOlaatCo2PL01%2FKBPgEjR6Tt7K%2BEct%2FdpzoVHhMWOfdxVrbXvhXJ90P2jRrUsGNHZe9hfq%2BfSYJMFk%2B78km5h%2FzBlT6EJpMWdpHcKygAwjmqcVBKZXJVzp5q17WmtF%2F8T3JsQ90OGBCB5pBAlaNBxlA76qmDZh0NVeSQJodExunGBk2LG4oVNVGordESqeyxFX2LkAKu6SKfqLrVBftjxq6464hRYfj6iayzIcTtE5u%2B3CJ%2FVWcjWm0yVcSs1k%2BG8XQvm3CQvyMezBRrARI5w4CDqYlbQTjU5%2FdNG2RUF68Ye0e%2Bi50S3
p32
sS'_accessed_time'
p33
F1459139724.6010001
sS'_creation_time'
p34
F1459137281.0439999
ss.