(dp1
S'session'
p2
(dp3
S'TTS_TOKEN'
p4
V39SmCWCDNYh0aZ2VfhUQbzEAwsbSKvXJI9m%2FxkZOLIuXdNvIkGVO%2FurxJg4ASaLOyI72oBlyuuwU4GikOTNcJHoiEymAoGbAw69ld8LPEbGFWizch%2BAD3l23td5Zuc7E9XVcYXj6kr4aHSAjfdiCuR2GBqAvNeZKrstLCmw7nW6xFtuPsAB26je8ltZjqFt4yi%2Bz9FLssJmQbSq%2BmuWTGQL%2BHu%2BGVWSjhALrBi5DsC6yS96ueJ3rGe9K1obDaRvUETks8WE9KrX2Nh%2FYRA%2BysSNT63P7cm8Hc7njm6B8F1hUutr2yUAZMfgM5TEIq%2BwvJ86UCp8oiFwKLV13ZQtFQONNKCizdAobocyJp6eETf4zebUDLFile5ygNaLecDv21zAwKK8wRTdAVPe706y9%2BOvGcLrkvby%2BZmGIEkyDZRQJBGKapPWceH%2FTyIBopoGfdn0YCqGW0MkZCuu4Yafe5PtKusl3aVW20cuGs5%2Bb%2FLsucR3k7WJvr18dWmKWCscZS2%2FpZxO%2B10ftM6GN%2BLu4NCmFFalSNXyrQmsu7BbTpfpiK2hrjMTve00Kqpw5uEg0cPc89Ca32muyP3ZZQwYHd2%2Fbc%2FCtP3DvOHDY8YO3xbSIakHv41G4iNB7M2MFCEKZtkg5J0RPNUnSCztZ%2FUmmrIL2sf8luvae3p8ZxE7qSR1bjiN6qxCgxS%2F3rvuB6mrogBlxg3RN77Ikd8bbUjvLBjehOEB9Y65m4mkzHiPbxTQFPPgmGnY19mz%2FznXK9e8IMMTK%2BhpSzZ7P5l8VP4Hl%2BE3ODjd%2FE%2F5r57fUqM%2B7cF7yeBDYSZPMREsKbBfmQfChS0SAZssxWtYWhvGqMKu1vfwetxOPEUQT
p5
sS'POSTS'
p6
(lp7
(dp8
S'text'
p9
VHey, I'm Watson. I can pick the perfect BMW. Ready?
p10
sS'style'
p11
S'Watson'
p12
sS'icon'
p13
S''
sS'name'
p14
g12
sS'datetime'
p15
S'2016-03-27 21:35'
p16
sa(dp17
S'text'
p18
VYes
p19
sS'style'
p20
S'Partner'
p21
sS'datetime'
p22
S'2016-03-27 21:35'
p23
sS'name'
p24
g21
sS'icon'
p25
S''
sa(dp26
g18
VIn order for me to pick out your perfect match, I need to take a look at your social bits and bobs.
p27
sg20
S'Watson'
p28
sg22
S'2016-03-27 21:35'
p29
sg24
g28
sg25
S''
sasS'DIALOG_CONVERSATION_ID'
p30
I1292153
sS'DIALOG_CLIENT_ID'
p31
I1304113
sS'STT_TOKEN'
p32
V81E%2BjCQ0ACCJszoFQFaq78Hj3hlXaiYjC4AbVFqybOm9f1%2FnAYsORNJxo2oFyF%2F7kfJSqQ0tFPiQE9phY7V0AXAiC3EBtAK3MUJs3UbICLCSZm8D5rZaxR69DM9pYTBQXvr3fJXAcsKUzw9DhbzlHB3FknvzZycFDwz6O8xYI%2B6LbCcJ2%2BVMhcdjLA0%2BJB%2FuIrlSG3m4zHS3YYc6pzheSm8epFyA4Aiaif%2B1Jo%2FOtP35KVORlpUVk5oLmSlmqZRqGz1NFEJr%2FyNEviTjZxH3Z6suV5JezDmUErvj985NA4DuND1E6c%2BxypK0Zk%2BEra8Np98LkA6zLSimC0Buj%2BEHRfyLXau4z8HMCZX6VsO%2FSh%2B7bBdScNMz%2FrRG1t%2BTGow7Uf0pVOct99lJoXEHJpLLiaBpbxUXCU5SGrXlsHFNC%2FryvPfwF5E4LRIFlTqOlLL827D%2BrAiD9KmGKLg2AzEWhbL1Z0cpzpyYO%2FCwAcgeXtjhzbkwUWyP2ei0zR2aVzcOueH6SqtHkatpMi2AeY54Tpy00822OGWEiodoS6g6pLwPlZmzntT6QZsZvBhWviz77Qk9lVK9s59j3qprPPRMKPEOSiSlga%2F8fVQBXq%2BHTOecehDxDJhh6l%2BupdRtheFcHCkbf3CKwLRotoKDCmBIWd5JcdY3WLK%2FQ7LxlwqOKY0l8mn4UohTN%2BeB1r70%2FouOsUxSQ3jqsHEvGVOhTtNfxp0iNwvVzO%2FzM%2B7ZPw21U2Gc%2FmWQuaboxbX3bp%2B9Lq%2FkOuNTyvg34TbqttUdQybx%2FSHHzziZYQXOjw8e56XfnSM9C391lyxiBOhQxdWfV0DrOebsdmRwrEVNIHG0hJGnaq6eiQ2x%2Br0g
p33
sS'_accessed_time'
p34
F1459139743.7249999
sS'_creation_time'
p35
F1459139740.023
ss.