(dp1
S'session'
p2
(dp3
S'_accessed_time'
p4
F1460665665.0510001
sS'POSTS'
p5
(lp6
(dp7
S'text'
p8
S''
sS'style'
p9
S'Watson'
p10
sS'datetime'
p11
S'2016-04-14 13:27'
p12
sS'name'
p13
g10
sS'icon'
p14
S''
sasS'DIALOG_CLIENT_ID'
p15
I1646172
sS'STT_TOKEN'
p16
VIk%2BKsJwtlIa%2F3MUaMISwAlW%2FJ0CdHiRjw7O8Jd35FK9eO2HAeSd8EWyYTRp9ezmR1cJpdyEExlKIMvUf2FP8LurBe%2BF%2BV9ENjo20Pz1MFdz4ew8JvCEL8G5K3aV0Tc3RSls5DzqvxdRe7hzHvipdr61qYO2e2rifompwfMVpTEzCQoMiJBxOhC2HE%2FcWe8IUfuJaCZcqMXishUo1S%2FUgkn4tO0Us0EG%2Fp%2FPTRBTRAUFjOPZBpreILGVFXqYGumserBSQdFLIbzGp49km80bX%2FAXTpfrltGBpIlkzTovoksYlmZn%2FUSEmFXmfkGb32Vd%2B8jh13QP61hp%2BX3sTfVQiVORoAvVMQlq%2FgLNUIJSxKRwpXCX6Pv6CvwwSzzQcw82JQwHIsksNbq2gQYLbzytuNxxX7stZeub5bNIfQ6V7dgW%2F1ndwGbuiOe7GFoqJo7KQ%2B4GfdApsdXSKGwv%2Fr0WgE2foo%2Bjvvk0psGuLm%2FRnsXBNb2ndGM9%2F4QZzN9B15sajCXqJF07qnRPh4SrDMmt3Lla%2Bo23XgkhgG2LM4kSx199brqCj0sNV2qBhN%2B%2BH%2Bj2XmzVOfo0wLq7HfmARqgqn4K%2F%2BQX8HkscwTEj02%2FS3wAk1KWVdKvG6AQ2P6ERSoFTWvsWQ%2BmoddAWBcgjARg7damA7GFBSJq8YLX2xV1Zsjiu2H1aHldKUZIfZ4d700JY5uZECu5bSgE5Hjn8E7vgrv6tmVSYcaWYuXnxAagCIzwODGRU1f6aADnBvLC1wvB%2F1bbjIHj1lDTvpcNcmJ5hRqFWcf3RWFyxENAXj1nspIGPvz5eraaIG4ZxytohuStvK209SCfSZQwaVWtsMt%2BYiySyTIQJco9%2F0
p17
sS'_creation_time'
p18
F1460654079.8959999
sS'CUSTOMER_PROFILE'
p19
V2 Series
p20
sS'TTS_TOKEN'
p21
VGGN97I3oqoqWk36JmHlN7FJ2iGHQgZ124O4wr%2FKE8c6fZHFBa00vCy2TOufD%2B0lpwAYqhP7DB6ZcF4YV9yy9L7xKFrSYfwIE%2FwBfIBR9SI2naY22w%2BLcoOawBRWfmdjM%2BGqMCOCu9AZw7m%2FAAwoiGEK6ZlaBzBUTGCnIGVDVuIZVt8fvEj6MWLhtF%2Fmh2rmQdrbu50RbIGlYr8cS9C1PvXp20%2F1F9pYdfYFg5R4zs6tiRcVvdeovQxtuN0Ih4kZ6lPLQKRUSj3nJKyLc0RgOdIl3lhNsaqNs7D9Ikh5o11nGFIf1GOTxb2lIazu7f6D%2B3NTpUJMr8LnlRPdYwDt%2BAkITM7%2BVJz2rk8H1K0n6%2BQiStDcvQvYa8CsEvxep8U0rv1SJO%2BWFGwElscqg6TnUXle%2B3%2B8M%2BI0sC8c%2F%2BXTBclAgVHB1Oita6D6WQ848CCgVAIPAAK1J%2FAYBdBFj4WDeaA4j4R4AuIahvREuc%2Fup40rG4IFchErgfqDkSPfInnMXKPIi7Qm1sjrPkNLxgS5LXlmF0Bl1nHM59bxSHJb2XgiNxsP3225pTm1HmaevVXBx%2BNSFpyVICoEd5heqboE6hxPuy0OgJ37bWUlTyxd1WYi8dfll1ddbL26lQqNIjmpx2VtP%2BoZq5wzzn%2BPVnuXmOHBVjkS5urK5YrjnRU%2BHtK68p2O%2Fu7jfr%2BWPTZ1qnypetSlTdmlCzLFLE5z0pNnVvfGbrjTcKEDcn%2B0W%2BpOUKlZEHot8ozsP57lvdh4mnQ7M6Rc%2F1cLV9HeF%2BPr7Lr9KrDXqOCrlSJXquisl%2FLxnZyNzjUlShzD6QniaTGu%2FecFBqbsw7fEFmjIgIl6fu9LrMs%2Bh%2FvqSaBMj
p22
sS'DIALOG_CONVERSATION_ID'
p23
I1643409
ss.