(dp1
S'session'
p2
(dp3
S'DIALOG_CONVERSATION_ID'
p4
I1696705
sS'POSTS'
p5
(lp6
(dp7
S'text'
p8
VHey, I'm Watson. I can pick the perfect BMW for you. Ready?
p9
sS'style'
p10
S'Watson'
p11
sS'datetime'
p12
S'2016-04-17 21:42'
p13
sS'name'
p14
g11
sS'icon'
p15
S''
sasS'DIALOG_CLIENT_ID'
p16
I1699052
sS'STT_TOKEN'
p17
Vp4MctnNtNQ9tiCtzfmN7b1dZvIOkQa0NFFUoLbIrgaE%2FWdQETvhhSbOwdGMrdzkx9hH18Iuwx34xXtF291xwTOicVbsvyyIuA9wF0lQB2BZAg3oLURakG3ppEJjXNZvDRrHiCzrkgDALdc%2F9sa1w%2Fffdi4wrly3g%2BEu%2FwPoayLiEFsxM9LBDB2ClEh%2BHHWneFkc1vz5sc0RPFbgY5OP80I0YO3e0sNLRe1fiaZJs6bwyRTnofqCYaCwm3pDikS7wRWOOjD9BF2MkR4GmFOExJzHsq7kCoD9lqX8JQdXoyM1LQ3l1zwT%2BsyL5xdgOa9BGR2XEmTtk%2Bsu1kauoSeyWSvtDTTGx%2BWn9ZXW1NYBS39%2BCQ5QcxDearVKlHffzfo%2FjN30kafx6Tnkx4NYW11gr2Or1aQSVPhKBczx9WCfUM4GPQ5OfJjSSSDNZSOOmhj8niQ2CoD5zzsQcCswqLR62E3T4r%2BoHg%2BY%2BSWVO3xuCv6q2hwpT30vfO9ltl0CDUIQt1sAT5vD7dbIp%2BlHEwAN0wiarHfVoiO8g9J88VxTPmTl%2F0mvxO2X%2F0PQXBTJ%2BSwkXDifuyzt%2Bo9BvIEw1mzv6ZnOtpUw6H74sZv7kwqZmOjp5TaAbLesZqGNoRk%2B%2BmtlKL8xlJSdboPy06%2Fwt16XRij2Fk6uTWT9FCy5xmHugzB8DPMdzTiViScGaRsTjPE6TCQ3RWP17i%2Ft0ruB77iy9R5AKOQIZ%2B%2BLvkrsjLw2tteb9SiQRGjWZG9aFhtmjoB9Ak4bNl3zggvhp0tZZYExT5Nkmqpm3tgTOkkvDd2N5yr1G8fh8hLrnmn%2B8fWY%2BNSxlyNTHNUvVg0Im5dNsP4wOdqq%2F2xo2wMId
p18
sS'TTS_TOKEN'
p19
VAmPv%2BBUvbCrnkdbO4s9MVCF0EX2nPlVPTD0pM34cQX9NnQjMyZ4Z7hc5QswOH%2BdYgKkXZkUZthRbL%2BybrpA56LpADoft9tcKtRG2Fe7022JmlmXLpANHtSc05IAxMGRApuSDczEd2pBcJH0NG85CjPLl1ZzqdP4YoP8KRhlqpxE61D2JmR8MDIgmkLE6ygaZAODURkgDWyV6mogw5zhkkCDK5kCrgnC3zrnj7k4LeUSvTNsBGmR%2BnXkn0zX971L%2B7Tjqtt4bbHDe8ONZJZlmq1njXyGlFhxMUoYmjLH2j4XoDQfl%2BobDnm%2FxuTYPoxT4g827Pnyu2TBmbLU%2B77sn6Ef%2FjSWw4CuFtHap2G1vFLM7KwNr6C4MbEumihDLX2tWG%2BSu%2Fto39UXj%2FPZMDZKm27Ybee2mUwnJWoKCDj%2FX0XjRddNECyCjWOjtsmbvg7IxtNapjBG6SYcAvDR76mVoFGnbr14jwZqp7SBK%2FebXqb%2FgCOLqghjuqOkwSHLDyU3Cv2ZTkdnsG7Ib2GFPNO%2BxGPhkgdV6QnSyM4KjVOJmEXWdnE4%2Fkj%2F8jv1%2BiT1OFrd9nAL%2F2Rz%2BfOIzO7Dh1l345y3hqiONQu3ERSzrVQk5zaXRF3HX1Y%2BbkhFGxSabIHqRac7m9JR4NHUpbl4TTeyi23dhLaaQAwJokQTNmZOiMQqHkRWjOUarz3yLT2YCuFTU2p7rq62xdjAskLZWfjLVzwuZymG5%2BO8OhVf%2F6I1PxQeYi2WHG0Sz4QxGg6YuEUbyN1n1ASM6Q2w7o31H%2FAROFiatXjVlB7HKMb8WR92VYqA4MjVOj8YmR7YJAYsTAbka4qbVO1rAZ%2BPkExBF83U%2BymTf9P3l1M1z
p20
sS'_accessed_time'
p21
F1460954546.964
sS'_creation_time'
p22
F1460954524.277
ss.