(dp1
S'session'
p2
(dp3
S'_accessed_time'
p4
F1460006884.072
sS'POSTS'
p5
(lp6
(dp7
S'text'
p8
VHey, I'm Watson. I can pick the perfect BMW. Ready?
p9
sS'style'
p10
S'Watson'
p11
sS'datetime'
p12
S'2016-04-06 22:28'
p13
sS'name'
p14
g11
sS'icon'
p15
S''
sasS'DIALOG_CLIENT_ID'
p16
I1489851
sS'STT_TOKEN'
p17
VilXuiBqCiiTeu8ZD2JT3ZnAa7Dy%2B4bNXBS86gjTE0k%2FoNhFcWy7dn3ncZnjZYjxDlyeZQp6xuJiwagr7U%2FGrdlL2%2F1on3NkdpA9sptT%2BrfHLhnCkdAVvocqh%2FieH082djoBKnuLcKNoC9sK9xh7Lgnx3yL8wQbCYS0eiVdyOdJdC92eLTD80R9RXZba6TrtGvbQGW3Qd8tLWDz2%2BUJ1aHMJ%2Fqm1ei6BOX9wcqNLI67YscZjyUVFWow%2Fz%2FoMBBhzJ89aEb8VWaXqf618KyQ622FM39liG%2FYsdupeFDr39F4AS9TBOzQe9pr%2BnikowuSv32b3UyM7HAqHbUI5Jm7RvYBns%2BEzMkW5zMNf8Dyops2AZVAqHWBy7uCTfH%2BWqZ1asTPONAjFQSmoj2mi5sxLD0Y7V3MXmYWYxFHHxOdR242ngqE933EpZNi227cn4LGKdApIV6kn%2BpSqsLXZC3KAh82Kr%2B2NNS8%2BQ%2BUIdzpxyUQNexD%2FH%2Fj3QrOak35%2BlUoah6ZlikTEGmZe0k1IJNSsGgFkrV%2FOZeucUMrTtfZ5dcHJKNpUI3DB7gG0TVD7M9c1ueq0TBtPGES1DBaLOmWGQLeioh55RRO54YKTK45j%2FuvotIVIxxWixvrhGrvSsvAdnoQ62HouKNVTcDiG%2Bqe3vAlOPUinrYjYlaE4LwBlMEKOsbeemQrdT%2Bnwc03IcbJZlc%2BsyGz5H1jcbEj5UntB%2BRjwgx4uZkWuzb%2BdBkLhgL8VNYp3FWd86NAluGuvtmpn7HNT9iPLsGGQMuruP4IpxFlnR2uws1mLbCIx16Y%2F2an1S2YkSjr%2BMsVT%2F1h%2BmG4Y%2B%2FeK%2Be0GaYtCoEn4OKYccvbNTAhjf4WBq
p18
sS'_creation_time'
p19
F1459975482.402
sS'CUSTOMER_PROFILE'
p20
V2 Series
p21
sS'TTS_TOKEN'
p22
VOJQ33vUsx6320tS8TRHQUs1Ae%2F86TkAOmeJJuouoHkWG0HFxHdZD4DOO%2FSoK7Rf2T8nUfbKd45L0BMFRTYwkYNk3KC0%2BQm7Yn0ZiMYUSiDYC3U30Olkp0xHhrxJQAVL1zCumb%2FkjyT0B7Kio3c4SXFgpB1m2hWwd3BsIgQ3Dn9WTyeJYwEnitKW9hekKbdmiq5dchCWCnjm31Dg5ofIabVeHAVXySVi0qNqeqOcp6OaCLS7tz1CvQUgQFl2EXCc%2F18LiIK65w3UGEG9LGpsTl1WU8ZLfws36ACnAzGa%2BFQkbyUsNZL8SsPGg2iFP5HK8nuXdIPenetYLXhKWUSP70alyNMVdVViD1NbNomaMzdccM4mGVwOSqc1oOgQf5UkW95et8iAGvlMFuGUSR%2FNu9GrwtdcjujfGJXPX7xzG6i4tgCZIxysmH3I7T0Xoqh%2BSUHGbBrWWCacZ2kCpdW0loZAKBiKRco8Y%2BEHOhggbx23Pc95d3VL4Gli4CFnaylgb7b8Mj%2ByAbVWNv43RbybSybtXgDDujFi6S5FXodD71ExsvaeSvoanVWU8hZgaaiSOpYJb2oJC3axK9juqa5YKjACA0LS9%2F1bpYYplIfGW4GGWBKUOmzecbZG0R9Hid1bgFHiAq0WmV4lfpk7t0l4v2igbqq6XE%2FcTFJXvteS2vRhz0u24c0z2QKOTPNVirIS490wZyrdWSM%2BtuJmpRNi%2BPUOdW7Xz7%2BTgeZlx3L1jcLkXr%2BLiaa9QvAxi%2FIliY3vPhSc80EnvZPV7H9uHMroKuAxSXyZGQBfTcKD8qk8hlubV5G4xDQ6XajyZ1ujuonJCEj1PU%2F%2BnYJiKhdlkgM%2B2bgnmYcgOiyrD
p23
sS'DIALOG_CONVERSATION_ID'
p24
I1500748
ss.