(dp1
S'session'
p2
(dp3
S'_accessed_time'
p4
F1460334047.5090001
sS'POSTS'
p5
(lp6
(dp7
S'text'
p8
VHey, I'm Watson. I can pick the perfect BMW for you. Ready?
p9
sS'style'
p10
S'Watson'
p11
sS'icon'
p12
S''
sS'name'
p13
g11
sS'datetime'
p14
S'2016-04-10 17:19'
p15
sa(dp16
S'text'
p17
Vyes
p18
sS'style'
p19
S'Partner'
p20
sS'datetime'
p21
S'2016-04-10 17:19'
p22
sS'name'
p23
g20
sS'icon'
p24
S''
sa(dp25
g17
VIn order for me to pick out your perfect match, I need to take a look at your social bits and bobs.
p26
sg19
S'Watson'
p27
sg21
S'2016-04-10 17:19'
p28
sg23
g27
sg24
S''
sa(dp29
S'text'
p30
VUh...rather not
p31
sS'style'
p32
S'Partner'
p33
sS'icon'
p34
S''
sS'name'
p35
g33
sS'datetime'
p36
S'2016-04-10 17:20'
p37
sa(dp38
g30
VAs you wish. I'll just ask you a few questions then to get to know you a little better. Ready to begin?
p39
sg32
S'Watson'
p40
sg34
S''
sg35
g40
sg36
S'2016-04-10 17:20'
p41
sa(dp42
S'text'
p43
Vyes
p44
sS'style'
p45
S'Partner'
p46
sS'datetime'
p47
S'2016-04-10 17:20'
p48
sS'name'
p49
g46
sS'icon'
p50
S''
sa(dp51
g43
VFirst question. In their unguarded moments, how would your friends describe you?
p52
sg45
S'Watson'
p53
sg47
S'2016-04-10 17:20'
p54
sg49
g53
sg50
S''
sa(dp55
S'text'
p56
VI'm fearless. Throw me into a new situation and I thrive.
p57
sS'style'
p58
S'Partner'
p59
sS'icon'
p60
S''
sS'name'
p61
g59
sS'datetime'
p62
S'2016-04-10 17:20'
p63
sa(dp64
g56
VI'll bet most people find that confidence of yours quite attractive. Next question. What's your idea of fun?
p65
sg58
S'Watson'
p66
sg60
S''
sg61
g66
sg62
S'2016-04-10 17:20'
p67
sa(dp68
S'text'
p69
VI workout a lot. Lift weights, run, that kind of thing.
p70
sS'style'
p71
S'Partner'
p72
sS'datetime'
p73
S'2016-04-10 17:20'
p74
sS'name'
p75
g72
sS'icon'
p76
S''
sa(dp77
g69
VAn active lifestyle like that definitely keeps you young. Last question, Tell me a little bit about the kind of driving you do and your driving style.
p78
sg71
S'Watson'
p79
sg73
S'2016-04-10 17:20'
p80
sg75
g79
sg76
S''
sa(dp81
S'text'
p82
VI just want a car that's fun to drive.
p83
sS'style'
p84
S'Partner'
p85
sS'icon'
p86
S''
sS'name'
p87
g85
sS'datetime'
p88
S'2016-04-10 17:20'
p89
sa(dp90
g82
VYou sound like a person who expects more out of life. To see the BMW model just right for you, walk me through some of your priorities and click the button!
p91
sg84
S'Watson'
p92
sg86
S''
sg87
g92
sg88
S'2016-04-10 17:20'
p93
sa(dp94
S'text'
p95
S"There's no one quite like you, and I can see you enjoying yourself behind the wheel of a <b>228i Coupe</b>."
p96
sS'style'
p97
S'Watson'
p98
sS'datetime'
p99
S'2016-04-10 17:20'
p100
sS'name'
p101
g98
sS'icon'
p102
S''
sasS'DIALOG_CLIENT_ID'
p103
I1565808
sS'STT_TOKEN'
p104
VacpiWO9lwcCyMtDy0OWWogUBbgSwF5%2FtdpgEVY9gOJv%2BnnwyVgWWebbw5I%2FiLn8xQiXSj6ws53nJOFdaWIdUp%2BfKuM4hro9vzmQs9UUFjOw4tqEkbBhSIhfJnFFoeNM%2BKXZL9rhUfKqi6Rrz2FfYuyLyncIPK1rOHs4QXNgIK%2BjDhTzTWQpxPToljdx74H9KUS3U6Eca1blxKqqZBk3j%2BKT%2BCEMrtgPiVEZ6mPYfKL%2Faap0Bil4bIZfw6Ov%2FCIlZ4z3QwU%2BXDDZz7o8zdHrDuRDQlSA4ASThToHSv%2BmheYXfNtCfczDblOe%2FYZSYgiimqGv8X0%2F6TpuDPj%2FFG0aUOuxG6HxzPcrx1EdQzEdm%2Fd6QZqpAYKYze2ESiQmVifbMgcQ8za3VVFmqCYcHLVS9ffYAeOfb%2FXEwPElH2e%2BhsGRk8kGuVgFeAY89nXCgq0r%2FgvbgvZDLv4emlqxq0wCAZ97MFrHsgqeNb6%2ByunOYqr0vpDDShcLbe1GTPP5ztwoEfdMm9H3%2FD5S%2Fm3vVqTglcC0xYqfa7cUXby0AnhvYZMg7KotCJjVQvTcKMhRvGehyaFnBQ1dSCMUCkxXUXBKlVa1HUWr3DL06GNYBEmxt1bapBAdwGxwj67GcPr%2B%2Be5fR67qzAld80ylWVB%2FWcGCsVFcZiAtkGmzTC5kwq72RKtKhq8kNeRVtrj0k%2FXkCXFE4zbJOg7Soz8lfKNRhQ59jcg0uiWJ3Vx5yFQgSJF%2BbVkIowCPJr3%2FvkjpoUy1Xe2HBWpPjVB5Mf8%2Bw0mV1Fks4L4jGwCKVkNR%2FbHYGhQTF3BGLL%2FdxNY4GEvwJBX2MaXXKaklwvFTMNTNz%2BfU%2BXJ5CPR1RPFIR1OlQ
p105
sS'_creation_time'
p106
F1460333991.6830001
sS'CUSTOMER_PROFILE'
p107
V2 Series
p108
sS'TTS_TOKEN'
p109
VXhB8QXbUgAUS7XjbBSruBpNqIEKz%2BS3Ci7IPEzuuosbE3sque8PTnx9PX5NflTq75NtN2OzZpUK79FXNseqMR38rNKiNzelpadWluyMlZlOLCJfoAjcQXeckuMO5vFDXEZXF4VamEos4j6IHv0c6cPAcpnRiwC6xDjMTkgcWqXIGSay0Znt7U19SiHJdnf5%2BVUChzTiRtu4dOPnTLU%2F3pqlZC2vbgiWtGUZLoCmJu%2FfF9HLCcCjLZxHXo0v0tEeaSu3VW9grwRcAilbLFsBb1Cbv%2BYInYHvCbraj5B9z9VxAmysE9EJ1wc54BB2uhzEvTpUi%2FEpD5YeZXHl%2BeNuyxQS8B6NClvZT%2F%2BwNPE0POlxh73JToF7sDw2OjiSlZFmUQeu2HMkx0q8WE4ZoOBSaGLMsIbvqbNdJs2X3APodMUcbh4PwjKYu%2FrrQonaW0VzZBmy2gIpNwGxq%2Foq9BB6G334rTeiyOhDrqwZDGd96UGwBk7O8zLSVetpb1cfOY%2BnzGoadlx7X3pWT6hLIUCQdMMmIRRQVkiUrGruDBo0huX1qsh5TCG0onv7cajyVuOB97blqzgJBhCUzNvTGWyXMDNw4oJHsb2FoDMhuggYJLguNgp45%2FN%2BGiaW0JHIFTbSH6mXoDIJBKuXsoV03ME7dlMQJ5mqpZklF%2F2oQZ0O14k%2BTYNULvt0n4%2Bsyvtn%2FjiuLwSMV1aLO06YegSyBfe6i7nJsMgVqAHERQe5U23OxOaU1mVl%2BonMkDhI6Wc%2F6thrG7eQGCMwpIQ5mA983xxdcTWol4bhaGMrdcxjzlwPy%2B4dySZ0OMSd7xw28fkBg5BH%2BlPfr02%2FF90TpaxLjrHk0ZP6nX4u65ROV
p110
sS'DIALOG_CONVERSATION_ID'
p111
I1567025
ss.