(dp1
S'session'
p2
(dp3
S'_accessed_time'
p4
F1460331661.2579999
sS'POSTS'
p5
(lp6
(dp7
S'text'
p8
VHey, I'm Watson. I can pick the perfect BMW for you. Ready?
p9
sS'style'
p10
S'Watson'
p11
sS'datetime'
p12
S'2016-04-10 16:39'
p13
sS'name'
p14
g11
sS'icon'
p15
S''
sa(dp16
S'text'
p17
Vshoot
p18
sS'style'
p19
S'Partner'
p20
sS'icon'
p21
S''
sS'name'
p22
g20
sS'datetime'
p23
S'2016-04-10 16:40'
p24
sa(dp25
g17
VSorry, I'm not following you at the moment. Want to let IBM Watson pick the right BMW for you?
p26
sg19
S'Watson'
p27
sg21
S''
sg22
g27
sg23
S'2016-04-10 16:40'
p28
sa(dp29
S'text'
p30
Vyes
p31
sS'style'
p32
S'Partner'
p33
sS'datetime'
p34
S'2016-04-10 16:40'
p35
sS'name'
p36
g33
sS'icon'
p37
S''
sa(dp38
g30
VIn order for me to pick out your perfect match, I need to take a look at your social bits and bobs.
p39
sg32
S'Watson'
p40
sg34
S'2016-04-10 16:40'
p41
sg36
g40
sg37
S''
sa(dp42
S'text'
p43
VUh...rather not
p44
sS'style'
p45
S'Partner'
p46
sS'icon'
p47
S''
sS'name'
p48
g46
sS'datetime'
p49
S'2016-04-10 16:40'
p50
sa(dp51
g43
VAs you wish. I'll just ask you a few questions then to get to know you a little better. Ready to begin?
p52
sg45
S'Watson'
p53
sg47
S''
sg48
g53
sg49
S'2016-04-10 16:40'
p54
sa(dp55
S'text'
p56
VSure
p57
sS'style'
p58
S'Partner'
p59
sS'datetime'
p60
S'2016-04-10 16:40'
p61
sS'name'
p62
g59
sS'icon'
p63
S''
sa(dp64
g56
VFirst question. In their unguarded moments, how would your friends describe you?
p65
sg58
S'Watson'
p66
sg60
S'2016-04-10 16:40'
p67
sg62
g66
sg63
S''
sa(dp68
S'text'
p69
VI'm fearless. Throw me into a new situation and I thrive.
p70
sS'style'
p71
S'Partner'
p72
sS'icon'
p73
S''
sS'name'
p74
g72
sS'datetime'
p75
S'2016-04-10 16:40'
p76
sa(dp77
g69
VI'll bet most people find that confidence of yours quite attractive. Next question. What's your idea of fun?
p78
sg71
S'Watson'
p79
sg73
S''
sg74
g79
sg75
S'2016-04-10 16:40'
p80
sa(dp81
S'text'
p82
VI workout a lot. Lift weights, run, that kind of thing.
p83
sS'style'
p84
S'Partner'
p85
sS'datetime'
p86
S'2016-04-10 16:40'
p87
sS'name'
p88
g85
sS'icon'
p89
S''
sa(dp90
g82
VAn active lifestyle like that definitely keeps you young. Last question, Tell me a little bit about the kind of driving you do and your driving style.
p91
sg84
S'Watson'
p92
sg86
S'2016-04-10 16:40'
p93
sg88
g92
sg89
S''
sa(dp94
S'text'
p95
VI just want a car that's fun to drive.
p96
sS'style'
p97
S'Partner'
p98
sS'icon'
p99
S''
sS'name'
p100
g98
sS'datetime'
p101
S'2016-04-10 16:40'
p102
sa(dp103
g95
VYou sound like a person who expects more out of life. To see the BMW model just right for you, walk me through some of your priorities and click the button!
p104
sg97
S'Watson'
p105
sg99
S''
sg100
g105
sg101
S'2016-04-10 16:40'
p106
sa(dp107
S'text'
p108
S"There's no one quite like you, and I can see you enjoying yourself behind the wheel of a <b>228i Coupe</b>."
p109
sS'style'
p110
S'Watson'
p111
sS'datetime'
p112
S'2016-04-10 16:41'
p113
sS'name'
p114
g111
sS'icon'
p115
S''
sasS'DIALOG_CLIENT_ID'
p116
I1565298
sS'STT_TOKEN'
p117
V4BVR8VOl4PgDhFAfhheq2FoG%2BjZN42WFE4%2BRD8UCIdfwRS2QMiZkWI586ALQDBhHrUQ4l3dQitaTVhj%2BDZM0f6vpX2YI6pbfzJk68j2cV4M8uOjA1BAuHGe2%2Ff4DgxL3KrgVKGp3%2Bk53jKBUGN7UiM2NV7XzJmzNe8zvC7Djfxc7qrdJj28Z880LwOfhd3OC1mcxcbrykcee5vfjD0ODVtSGwFoaPptqAXLAXB%2FRj8UUv%2FY6GRscd2Xl08Xf0l1nVRKJ%2BHH4sLohIyjJKUFvf%2Fq8A0v2IwKHeIt7Eba5Ma46QJljyMkcO%2Fn%2BflEqHHNaVcsUAWuYAycjcx3xoODkUmxPvmLeK1qoMiGB3tLsJos4r7vTpFk%2BpxrlJu5gqFD9CvwFmTIAXAYFb90gSNZUXJhCs1Elnu%2BP5kUqe205AMikafsd%2FOqboJoNZiaNWW4PxhBuZy4iaY7zjJkcCkH45vKs8xtRvGVNlvCA5xsbVwioHusGU6DZpDFVamn7A%2BQPv246jG1SnI%2BXbCkGYk4diCCLmrqVgdBUKrhGo6Pa7jmMJfCmaI0Msgat7YopLfhlxyAdBUtEPKjz8jZ3ilw0ZRLDBcamBdh2wyYkfvHpKdW1bnwEbEMxK7zTFoiZt59nf1D%2BfMaWd1sbxyKheUkihslWEi97L%2FljnLijchyGHqVPSFzhD3fD53sDZNsQsRhDWzrGSC2bM75699%2BmJwgyAQgm4RL6VQ2jnWjwmENk%2B2ZOnuWPNjvH7kuhbjG83%2B14zD1F56Lay9Dh5cLtKVycWAjmuWIhT20kcYVV6rxz9RKdC2tcQutfel3G%2FYl4C5DOBuLKIBuI7W8c%2Bm%2BQldo7QXpuQ5rmSdec
p118
sS'_creation_time'
p119
F1460331593.8840001
sS'CUSTOMER_PROFILE'
p120
V2 Series
p121
sS'TTS_TOKEN'
p122
VPwWQJOG4UV0TXIGFmqbcocAbMraaZpU58d73A68nhW2eaRYTghRimNFtxkVT7YAJiG423kI5LDPyx9DjeOFiIFX%2B0UaR%2BYM%2Fd9Z9UsSsAzHwXGtQL42bdjo%2FryaxBfvI8Vu84n9xJo19MQu7CzqSjBsiQp0ULtQJkksVQ4tX9cxv1rYR3jNOGjurPF8fE708VxX451HHnI2xChhvZl5soTSbVo8%2Ba%2BmUB4Vw9UpM485rLXabjDSXx7KoBG8uCB8Sq28SwLc23J8RG92TkRXa9ukTmuwWFuOJ%2FEIqPBopXv1mUwrQZv0MgHUS9iyjrY%2FpASozcn6s3850QsFtp3PABmWfjGPrssCE7KJ0V5%2BUXntwVxfAJuB8MHljM%2BhPOHJorWajzAp6RFzqMYtQl40MAm5afAyFbUP04DGo7ifX6TvMbk1DcelMQZoxD4vA1lbfDZDceLRNr9eo%2BwFBIiuVBcKap4vGBdIagGt3gCwH%2Bq5CKuG0YkZY8MrJ3z3DmJnzKjb7UjHnc9QTQ7MZNnfbX%2BPIxX0hwR6MGiAn5JFNyR%2Bv1%2BFjgYKbHFHogRlpr5cyB6c%2FxdorwMeghiuYa0uYTtfUnYRwCtviVdkl1GYDjkWDstFzqPVMqC9ko60lC2mioOopdFmAqOh4UlRbBGN%2FEQ4zPgLAu1mOf69%2BxhdTMsFHMnC1BOB50WVfBjP%2FCCjWX5j9pQvXk1TgB8TfDH2MxtXknVzzJkTWU60fHD%2BriEm9V3Efh0qbLsnESGmPkHlNba%2BITN6EYnt5MSNgu8Tx7KeN0MYezv4qrZp2kh5Nb6zMMnGCY8ebfQd1XVbzGznlPckE0SDemGyIEPcN8hU6mB1M7f35v4Sy
p123
sS'DIALOG_CONVERSATION_ID'
p124
I1566590
ss.